target datalayout = "e-m:e-p270:32:32-p271:32:32-p272:64:64-i64:64-i128:128-f80:128-n8:16:32:64-S128"
target triple = "x86_64-pc-linux-gnu"

%struct.VP8LMultipliers = type { i8, i8, i8 }
%struct.__storeu_si128 = type { <2 x i64> }
%struct.__loadu_si128 = type { <2 x i64> }

; Function Attrs: alwaysinline nounwind uwtable
define internal <2 x i64> @_mm_set_epi32(i32 noundef %0, i32 noundef %1, i32 noundef %2, i32 noundef %3) #4 {
  %5 = alloca i32, align 4
  %6 = alloca i32, align 4
  %7 = alloca i32, align 4
  %8 = alloca i32, align 4
  %9 = alloca <4 x i32>, align 16
  store i32 %0, ptr %5, align 4, !tbaa !9
  store i32 %1, ptr %6, align 4, !tbaa !9
  store i32 %2, ptr %7, align 4, !tbaa !9
  store i32 %3, ptr %8, align 4, !tbaa !9
  %10 = load i32, ptr %8, align 4, !tbaa !9
  %11 = insertelement <4 x i32> poison, i32 %10, i32 0
  %12 = load i32, ptr %7, align 4, !tbaa !9
  %13 = insertelement <4 x i32> %11, i32 %12, i32 1
  %14 = load i32, ptr %6, align 4, !tbaa !9
  %15 = insertelement <4 x i32> %13, i32 %14, i32 2
  %16 = load i32, ptr %5, align 4, !tbaa !9
  %17 = insertelement <4 x i32> %15, i32 %16, i32 3
  store <4 x i32> %17, ptr %9, align 16, !tbaa !11
  %18 = load <4 x i32>, ptr %9, align 16, !tbaa !11
  %19 = bitcast <4 x i32> %18 to <2 x i64>
  ret <2 x i64> %19
}

; Function Attrs: alwaysinline nounwind uwtable
define internal void @_mm_storeu_si128(ptr noundef %0, <2 x i64> noundef %1) #4 {
  %3 = alloca ptr, align 8
  %4 = alloca <2 x i64>, align 16
  store ptr %0, ptr %3, align 8, !tbaa !3
  store <2 x i64> %1, ptr %4, align 16, !tbaa !11
  %5 = load <2 x i64>, ptr %4, align 16, !tbaa !11
  %6 = load ptr, ptr %3, align 8, !tbaa !3
  %7 = getelementptr inbounds nuw %struct.__storeu_si128, ptr %6, i32 0, i32 0
  store <2 x i64> %5, ptr %7, align 1, !tbaa !11
  ret void
}

; Function Attrs: alwaysinline nounwind uwtable
define internal <2 x i64> @_mm_or_si128(<2 x i64> noundef %0, <2 x i64> noundef %1) #4 {
  %3 = alloca <2 x i64>, align 16
  %4 = alloca <2 x i64>, align 16
  store <2 x i64> %0, ptr %3, align 16, !tbaa !11
  store <2 x i64> %1, ptr %4, align 16, !tbaa !11
  %5 = load <2 x i64>, ptr %3, align 16, !tbaa !11
  %6 = load <2 x i64>, ptr %4, align 16, !tbaa !11
  %7 = or <2 x i64> %5, %6
  ret <2 x i64> %7
}

; Function Attrs: alwaysinline nounwind uwtable
define internal <2 x i64> @_mm_srli_epi16(<2 x i64> noundef %0, i32 noundef %1) #4 {
  %3 = alloca <2 x i64>, align 16
  %4 = alloca i32, align 4
  store <2 x i64> %0, ptr %3, align 16, !tbaa !11
  store i32 %1, ptr %4, align 4, !tbaa !9
  %5 = load <2 x i64>, ptr %3, align 16, !tbaa !11
  %6 = bitcast <2 x i64> %5 to <8 x i16>
  %7 = load i32, ptr %4, align 4, !tbaa !9
  %8 = call <8 x i16> @llvm.x86.sse2.psrli.w(<8 x i16> %6, i32 %7)
  %9 = bitcast <8 x i16> %8 to <2 x i64>
  ret <2 x i64> %9
}

; Function Attrs: alwaysinline nounwind uwtable
define internal <2 x i64> @_mm_srli_epi32(<2 x i64> noundef %0, i32 noundef %1) #4 {
  %3 = alloca <2 x i64>, align 16
  %4 = alloca i32, align 4
  store <2 x i64> %0, ptr %3, align 16, !tbaa !11
  store i32 %1, ptr %4, align 4, !tbaa !9
  %5 = load <2 x i64>, ptr %3, align 16, !tbaa !11
  %6 = bitcast <2 x i64> %5 to <4 x i32>
  %7 = load i32, ptr %4, align 4, !tbaa !9
  %8 = call <4 x i32> @llvm.x86.sse2.psrli.d(<4 x i32> %6, i32 %7)
  %9 = bitcast <4 x i32> %8 to <2 x i64>
  ret <2 x i64> %9
}

; Function Attrs: alwaysinline nounwind uwtable
define internal <2 x i64> @_mm_slli_epi16(<2 x i64> noundef %0, i32 noundef %1) #4 {
  %3 = alloca <2 x i64>, align 16
  %4 = alloca i32, align 4
  store <2 x i64> %0, ptr %3, align 16, !tbaa !11
  store i32 %1, ptr %4, align 4, !tbaa !9
  %5 = load <2 x i64>, ptr %3, align 16, !tbaa !11
  %6 = bitcast <2 x i64> %5 to <8 x i16>
  %7 = load i32, ptr %4, align 4, !tbaa !9
  %8 = call <8 x i16> @llvm.x86.sse2.pslli.w(<8 x i16> %6, i32 %7)
  %9 = bitcast <8 x i16> %8 to <2 x i64>
  ret <2 x i64> %9
}

; Function Attrs: alwaysinline nounwind uwtable
define internal <2 x i64> @_mm_add_epi8(<2 x i64> noundef %0, <2 x i64> noundef %1) #4 {
  %3 = alloca <2 x i64>, align 16
  %4 = alloca <2 x i64>, align 16
  store <2 x i64> %0, ptr %3, align 16, !tbaa !11
  store <2 x i64> %1, ptr %4, align 16, !tbaa !11
  %5 = load <2 x i64>, ptr %3, align 16, !tbaa !11
  %6 = bitcast <2 x i64> %5 to <16 x i8>
  %7 = load <2 x i64>, ptr %4, align 16, !tbaa !11
  %8 = bitcast <2 x i64> %7 to <16 x i8>
  %9 = add <16 x i8> %6, %8
  %10 = bitcast <16 x i8> %9 to <2 x i64>
  ret <2 x i64> %10
}

; Function Attrs: alwaysinline nounwind uwtable
define internal <2 x i64> @_mm_mulhi_epi16(<2 x i64> noundef %0, <2 x i64> noundef %1) #4 {
  %3 = alloca <2 x i64>, align 16
  %4 = alloca <2 x i64>, align 16
  store <2 x i64> %0, ptr %3, align 16, !tbaa !11
  store <2 x i64> %1, ptr %4, align 16, !tbaa !11
  %5 = load <2 x i64>, ptr %3, align 16, !tbaa !11
  %6 = bitcast <2 x i64> %5 to <8 x i16>
  %7 = load <2 x i64>, ptr %4, align 16, !tbaa !11
  %8 = bitcast <2 x i64> %7 to <8 x i16>
  %9 = call <8 x i16> @llvm.x86.sse2.pmulh.w(<8 x i16> %6, <8 x i16> %8)
  %10 = bitcast <8 x i16> %9 to <2 x i64>
  ret <2 x i64> %10
}

; Function Attrs: alwaysinline nounwind uwtable
define internal <2 x i64> @_mm_and_si128(<2 x i64> noundef %0, <2 x i64> noundef %1) #4 {
  %3 = alloca <2 x i64>, align 16
  %4 = alloca <2 x i64>, align 16
  store <2 x i64> %0, ptr %3, align 16, !tbaa !11
  store <2 x i64> %1, ptr %4, align 16, !tbaa !11
  %5 = load <2 x i64>, ptr %3, align 16, !tbaa !11
  %6 = load <2 x i64>, ptr %4, align 16, !tbaa !11
  %7 = and <2 x i64> %5, %6
  ret <2 x i64> %7
}

; Function Attrs: alwaysinline nounwind uwtable
define internal <2 x i64> @_mm_loadu_si128(ptr noundef %0) #4 {
  %2 = alloca ptr, align 8
  store ptr %0, ptr %2, align 8, !tbaa !3
  %3 = load ptr, ptr %2, align 8, !tbaa !3
  %4 = getelementptr inbounds nuw %struct.__loadu_si128, ptr %3, i32 0, i32 0
  %5 = load <2 x i64>, ptr %4, align 1, !tbaa !11
  ret <2 x i64> %5
}

; Function Attrs: alwaysinline nounwind uwtable
define internal <2 x i64> @_mm_set1_epi32(i32 noundef %0) #4 {
  %2 = alloca i32, align 4
  store i32 %0, ptr %2, align 4, !tbaa !9
  %3 = load i32, ptr %2, align 4, !tbaa !9
  %4 = load i32, ptr %2, align 4, !tbaa !9
  %5 = load i32, ptr %2, align 4, !tbaa !9
  %6 = load i32, ptr %2, align 4, !tbaa !9
  %7 = call <2 x i64> @_mm_set_epi32(i32 noundef %3, i32 noundef %4, i32 noundef %5, i32 noundef %6)
  ret <2 x i64> %7
}

; Function Attrs: nounwind uwtable
define internal void @TransformColorInverse_SSE2(ptr noundef %0, ptr noundef %1, i32 noundef %2, ptr noundef %3) #1 {
  %5 = alloca ptr, align 8
  %6 = alloca ptr, align 8
  %7 = alloca i32, align 4
  %8 = alloca ptr, align 8
  %9 = alloca <2 x i64>, align 16
  %10 = alloca <2 x i64>, align 16
  %11 = alloca <2 x i64>, align 16
  %12 = alloca i32, align 4
  %13 = alloca <2 x i64>, align 16
  %14 = alloca <2 x i64>, align 16
  %15 = alloca <2 x i64>, align 16
  %16 = alloca <2 x i64>, align 16
  %17 = alloca <2 x i64>, align 16
  %18 = alloca <2 x i64>, align 16
  %19 = alloca <2 x i64>, align 16
  %20 = alloca <2 x i64>, align 16
  %21 = alloca <2 x i64>, align 16
  %22 = alloca <2 x i64>, align 16
  %23 = alloca <2 x i64>, align 16
  %24 = alloca <2 x i64>, align 16
  store ptr %0, ptr %5, align 8, !tbaa !3
  store ptr %1, ptr %6, align 8, !tbaa !7
  store i32 %2, ptr %7, align 4, !tbaa !9
  store ptr %3, ptr %8, align 8, !tbaa !7
  call void @llvm.lifetime.start.p0(i64 16, ptr %9) #9
  %25 = load ptr, ptr %5, align 8, !tbaa !3
  %26 = getelementptr inbounds nuw %struct.VP8LMultipliers, ptr %25, i32 0, i32 0
  %27 = load i8, ptr %26, align 1, !tbaa !28
  %28 = zext i8 %27 to i32
  %29 = shl i32 %28, 8
  %30 = trunc i32 %29 to i16
  %31 = sext i16 %30 to i32
  %32 = ashr i32 %31, 5
  %33 = shl i32 %32, 16
  %34 = load ptr, ptr %5, align 8, !tbaa !3
  %35 = getelementptr inbounds nuw %struct.VP8LMultipliers, ptr %34, i32 0, i32 1
  %36 = load i8, ptr %35, align 1, !tbaa !30
  %37 = zext i8 %36 to i32
  %38 = shl i32 %37, 8
  %39 = trunc i32 %38 to i16
  %40 = sext i16 %39 to i32
  %41 = ashr i32 %40, 5
  %42 = and i32 %41, 65535
  %43 = or i32 %33, %42
  %44 = call <2 x i64> @_mm_set1_epi32(i32 noundef %43)
  store <2 x i64> %44, ptr %9, align 16, !tbaa !11
  call void @llvm.lifetime.start.p0(i64 16, ptr %10) #9
  %45 = load ptr, ptr %5, align 8, !tbaa !3
  %46 = getelementptr inbounds nuw %struct.VP8LMultipliers, ptr %45, i32 0, i32 2
  %47 = load i8, ptr %46, align 1, !tbaa !31
  %48 = zext i8 %47 to i32
  %49 = shl i32 %48, 8
  %50 = trunc i32 %49 to i16
  %51 = sext i16 %50 to i32
  %52 = ashr i32 %51, 5
  %53 = shl i32 %52, 16
  %54 = or i32 %53, 0
  %55 = call <2 x i64> @_mm_set1_epi32(i32 noundef %54)
  store <2 x i64> %55, ptr %10, align 16, !tbaa !11
  call void @llvm.lifetime.start.p0(i64 16, ptr %11) #9
  %56 = call <2 x i64> @_mm_set1_epi32(i32 noundef -16711936)
  store <2 x i64> %56, ptr %11, align 16, !tbaa !11
  call void @llvm.lifetime.start.p0(i64 4, ptr %12) #9
  store i32 0, ptr %12, align 4, !tbaa !9
  br label %57

57:                                               ; preds = %105, %4
  %58 = load i32, ptr %12, align 4, !tbaa !9
  %59 = add nsw i32 %58, 4
  %60 = load i32, ptr %7, align 4, !tbaa !9
  %61 = icmp sle i32 %59, %60
  br i1 %61, label %62, label %108

62:                                               ; preds = %57
  call void @llvm.lifetime.start.p0(i64 16, ptr %13) #9
  %63 = load ptr, ptr %6, align 8, !tbaa !7
  %64 = load i32, ptr %12, align 4, !tbaa !9
  %65 = sext i32 %64 to i64
  %66 = getelementptr inbounds i32, ptr %63, i64 %65
  %67 = call <2 x i64> @_mm_loadu_si128(ptr noundef %66)
  store <2 x i64> %67, ptr %13, align 16, !tbaa !11
  call void @llvm.lifetime.start.p0(i64 16, ptr %14) #9
  %68 = load <2 x i64>, ptr %13, align 16, !tbaa !11
  %69 = load <2 x i64>, ptr %11, align 16, !tbaa !11
  %70 = call <2 x i64> @_mm_and_si128(<2 x i64> noundef %68, <2 x i64> noundef %69)
  store <2 x i64> %70, ptr %14, align 16, !tbaa !11
  call void @llvm.lifetime.start.p0(i64 16, ptr %15) #9
  %71 = load <2 x i64>, ptr %14, align 16, !tbaa !11
  %72 = bitcast <2 x i64> %71 to <8 x i16>
  %73 = shufflevector <8 x i16> %72, <8 x i16> poison, <8 x i32> <i32 0, i32 0, i32 2, i32 2, i32 4, i32 5, i32 6, i32 7>
  %74 = bitcast <8 x i16> %73 to <2 x i64>
  store <2 x i64> %74, ptr %15, align 16, !tbaa !11
  call void @llvm.lifetime.start.p0(i64 16, ptr %16) #9
  %75 = load <2 x i64>, ptr %15, align 16, !tbaa !11
  %76 = bitcast <2 x i64> %75 to <8 x i16>
  %77 = shufflevector <8 x i16> %76, <8 x i16> poison, <8 x i32> <i32 0, i32 1, i32 2, i32 3, i32 4, i32 4, i32 6, i32 6>
  %78 = bitcast <8 x i16> %77 to <2 x i64>
  store <2 x i64> %78, ptr %16, align 16, !tbaa !11
  call void @llvm.lifetime.start.p0(i64 16, ptr %17) #9
  %79 = load <2 x i64>, ptr %16, align 16, !tbaa !11
  %80 = load <2 x i64>, ptr %9, align 16, !tbaa !11
  %81 = call <2 x i64> @_mm_mulhi_epi16(<2 x i64> noundef %79, <2 x i64> noundef %80)
  store <2 x i64> %81, ptr %17, align 16, !tbaa !11
  call void @llvm.lifetime.start.p0(i64 16, ptr %18) #9
  %82 = load <2 x i64>, ptr %13, align 16, !tbaa !11
  %83 = load <2 x i64>, ptr %17, align 16, !tbaa !11
  %84 = call <2 x i64> @_mm_add_epi8(<2 x i64> noundef %82, <2 x i64> noundef %83)
  store <2 x i64> %84, ptr %18, align 16, !tbaa !11
  call void @llvm.lifetime.start.p0(i64 16, ptr %19) #9
  %85 = load <2 x i64>, ptr %18, align 16, !tbaa !11
  %86 = call <2 x i64> @_mm_slli_epi16(<2 x i64> noundef %85, i32 noundef 8)
  store <2 x i64> %86, ptr %19, align 16, !tbaa !11
  call void @llvm.lifetime.start.p0(i64 16, ptr %20) #9
  %87 = load <2 x i64>, ptr %19, align 16, !tbaa !11
  %88 = load <2 x i64>, ptr %10, align 16, !tbaa !11
  %89 = call <2 x i64> @_mm_mulhi_epi16(<2 x i64> noundef %87, <2 x i64> noundef %88)
  store <2 x i64> %89, ptr %20, align 16, !tbaa !11
  call void @llvm.lifetime.start.p0(i64 16, ptr %21) #9
  %90 = load <2 x i64>, ptr %20, align 16, !tbaa !11
  %91 = call <2 x i64> @_mm_srli_epi32(<2 x i64> noundef %90, i32 noundef 8)
  store <2 x i64> %91, ptr %21, align 16, !tbaa !11
  call void @llvm.lifetime.start.p0(i64 16, ptr %22) #9
  %92 = load <2 x i64>, ptr %21, align 16, !tbaa !11
  %93 = load <2 x i64>, ptr %19, align 16, !tbaa !11
  %94 = call <2 x i64> @_mm_add_epi8(<2 x i64> noundef %92, <2 x i64> noundef %93)
  store <2 x i64> %94, ptr %22, align 16, !tbaa !11
  call void @llvm.lifetime.start.p0(i64 16, ptr %23) #9
  %95 = load <2 x i64>, ptr %22, align 16, !tbaa !11
  %96 = call <2 x i64> @_mm_srli_epi16(<2 x i64> noundef %95, i32 noundef 8)
  store <2 x i64> %96, ptr %23, align 16, !tbaa !11
  call void @llvm.lifetime.start.p0(i64 16, ptr %24) #9
  %97 = load <2 x i64>, ptr %23, align 16, !tbaa !11
  %98 = load <2 x i64>, ptr %14, align 16, !tbaa !11
  %99 = call <2 x i64> @_mm_or_si128(<2 x i64> noundef %97, <2 x i64> noundef %98)
  store <2 x i64> %99, ptr %24, align 16, !tbaa !11
  %100 = load ptr, ptr %8, align 8, !tbaa !7
  %101 = load i32, ptr %12, align 4, !tbaa !9
  %102 = sext i32 %101 to i64
  %103 = getelementptr inbounds i32, ptr %100, i64 %102
  %104 = load <2 x i64>, ptr %24, align 16, !tbaa !11
  call void @_mm_storeu_si128(ptr noundef %103, <2 x i64> noundef %104)
  call void @llvm.lifetime.end.p0(i64 16, ptr %24) #9
  call void @llvm.lifetime.end.p0(i64 16, ptr %23) #9
  call void @llvm.lifetime.end.p0(i64 16, ptr %22) #9
  call void @llvm.lifetime.end.p0(i64 16, ptr %21) #9
  call void @llvm.lifetime.end.p0(i64 16, ptr %20) #9
  call void @llvm.lifetime.end.p0(i64 16, ptr %19) #9
  call void @llvm.lifetime.end.p0(i64 16, ptr %18) #9
  call void @llvm.lifetime.end.p0(i64 16, ptr %17) #9
  call void @llvm.lifetime.end.p0(i64 16, ptr %16) #9
  call void @llvm.lifetime.end.p0(i64 16, ptr %15) #9
  call void @llvm.lifetime.end.p0(i64 16, ptr %14) #9
  call void @llvm.lifetime.end.p0(i64 16, ptr %13) #9
  br label %105

105:                                              ; preds = %62
  %106 = load i32, ptr %12, align 4, !tbaa !9
  %107 = add nsw i32 %106, 4
  store i32 %107, ptr %12, align 4, !tbaa !9
  br label %57, !llvm.loop !32

108:                                              ; preds = %57
  %109 = load i32, ptr %12, align 4, !tbaa !9
  %110 = load i32, ptr %7, align 4, !tbaa !9
  %111 = icmp ne i32 %109, %110
  br i1 %111, label %112, label %125

112:                                              ; preds = %108
  %113 = load ptr, ptr %5, align 8, !tbaa !3
  %114 = load ptr, ptr %6, align 8, !tbaa !7
  %115 = load i32, ptr %12, align 4, !tbaa !9
  %116 = sext i32 %115 to i64
  %117 = getelementptr inbounds i32, ptr %114, i64 %116
  %118 = load i32, ptr %7, align 4, !tbaa !9
  %119 = load i32, ptr %12, align 4, !tbaa !9
  %120 = sub nsw i32 %118, %119
  %121 = load ptr, ptr %8, align 8, !tbaa !7
  %122 = load i32, ptr %12, align 4, !tbaa !9
  %123 = sext i32 %122 to i64
  %124 = getelementptr inbounds i32, ptr %121, i64 %123
  call void @VP8LTransformColorInverse_C(ptr noundef %113, ptr noundef %117, i32 noundef %120, ptr noundef %124)
  br label %125

125:                                              ; preds = %112, %108
  call void @llvm.lifetime.end.p0(i64 4, ptr %12) #9
  call void @llvm.lifetime.end.p0(i64 16, ptr %11) #9
  call void @llvm.lifetime.end.p0(i64 16, ptr %10) #9
  call void @llvm.lifetime.end.p0(i64 16, ptr %9) #9
  ret void
}