; Function Attrs: nounwind uwtable
define internal void @TransformColorInverse_SSE2(ptr noundef %0, ptr noundef %1, i32 noundef %2, ptr noundef %3) #2 {
  %.not39 = icmp slt i32 %2, 4
  br i1 %.not39, label %._crit_edge, label %.lr.ph

.lr.ph:                                           ; preds = %4
  %5 = getelementptr inbounds nuw i8, ptr %0, i64 2
  %6 = load i8, ptr %5, align 1, !tbaa !26
  %7 = zext i8 %6 to i16
  %8 = shl nuw i16 %7, 8
  %9 = ashr exact i16 %8, 5
  %10 = sext i16 %9 to i32
  %11 = shl nsw i32 %10, 16
  %12 = insertelement <4 x i32> poison, i32 %11, i64 0
  %13 = shufflevector <4 x i32> %12, <4 x i32> poison, <4 x i32> zeroinitializer
  %14 = load i8, ptr %0, align 1, !tbaa !28
  %15 = zext i8 %14 to i16
  %16 = shl nuw i16 %15, 8
  %17 = ashr exact i16 %16, 5
  %18 = sext i16 %17 to i32
  %19 = shl nsw i32 %18, 16
  %20 = getelementptr inbounds nuw i8, ptr %0, i64 1
  %21 = load i8, ptr %20, align 1, !tbaa !29
  %22 = zext i8 %21 to i16
  %23 = shl nuw i16 %22, 8
  %24 = ashr exact i16 %23, 5
  %25 = zext i16 %24 to i32
  %26 = or disjoint i32 %19, %25
  %27 = insertelement <4 x i32> poison, i32 %26, i64 0
  %28 = shufflevector <4 x i32> %27, <4 x i32> poison, <4 x i32> zeroinitializer
  %29 = bitcast <4 x i32> %28 to <8 x i16>
  %30 = bitcast <4 x i32> %13 to <8 x i16>
  %31 = zext nneg i32 %2 to i64
  br label %32

32:                                               ; preds = %.lr.ph, %32
  %indvars.iv41 = phi i64 [ 0, %.lr.ph ], [ %indvars.iv.next42, %32 ]
  %indvars.iv = phi i64 [ 4, %.lr.ph ], [ %indvars.iv.next, %32 ]
  %33 = getelementptr inbounds nuw i32, ptr %1, i64 %indvars.iv41
  %34 = load <2 x i64>, ptr %33, align 1, !tbaa !9
  %35 = and <2 x i64> %34, splat (i64 -71777214294589696)
  %36 = bitcast <2 x i64> %35 to <8 x i16>
  %37 = shufflevector <8 x i16> %36, <8 x i16> poison, <8 x i32> <i32 0, i32 0, i32 2, i32 2, i32 4, i32 4, i32 6, i32 6>
  %38 = tail call <8 x i16> @llvm.x86.sse2.pmulh.w(<8 x i16> %37, <8 x i16> %29)
  %39 = bitcast <2 x i64> %34 to <16 x i8>
  %40 = bitcast <8 x i16> %38 to <16 x i8>
  %41 = add <16 x i8> %40, %39
  %42 = bitcast <16 x i8> %41 to <8 x i16>
  %43 = shl <8 x i16> %42, splat (i16 8)
  %44 = tail call <8 x i16> @llvm.x86.sse2.pmulh.w(<8 x i16> %43, <8 x i16> %30)
  %45 = bitcast <8 x i16> %44 to <4 x i32>
  %46 = lshr <4 x i32> %45, splat (i32 8)
  %47 = bitcast <4 x i32> %46 to <16 x i8>
  %48 = bitcast <8 x i16> %43 to <16 x i8>
  %49 = add <16 x i8> %48, %47
  %50 = bitcast <16 x i8> %49 to <8 x i16>
  %51 = lshr <8 x i16> %50, splat (i16 8)
  %52 = bitcast <8 x i16> %51 to <2 x i64>
  %53 = or disjoint <2 x i64> %35, %52
  %54 = getelementptr inbounds nuw i32, ptr %3, i64 %indvars.iv41
  store <2 x i64> %53, ptr %54, align 1, !tbaa !9
  %indvars.iv.next = add nuw nsw i64 %indvars.iv, 4
  %.not = icmp samesign ugt i64 %indvars.iv.next, %31
  %indvars.iv.next42 = add nuw nsw i64 %indvars.iv41, 4
  br i1 %.not, label %._crit_edge.loopexit, label %32, !llvm.loop !30

._crit_edge.loopexit:                             ; preds = %32
  %55 = trunc nuw nsw i64 %indvars.iv to i32
  br label %._crit_edge

._crit_edge:                                      ; preds = %._crit_edge.loopexit, %4
  %.0.lcssa = phi i32 [ 0, %4 ], [ %55, %._crit_edge.loopexit ]
  %.not38 = icmp eq i32 %.0.lcssa, %2
  br i1 %.not38, label %61, label %56

56:                                               ; preds = %._crit_edge
  %57 = zext nneg i32 %.0.lcssa to i64
  %58 = getelementptr inbounds nuw i32, ptr %1, i64 %57
  %59 = sub nsw i32 %2, %.0.lcssa
  %60 = getelementptr inbounds nuw i32, ptr %3, i64 %57
  tail call void @VP8LTransformColorInverse_C(ptr noundef nonnull %0, ptr noundef %58, i32 noundef %59, ptr noundef %60) #7
  br label %61

61:                                               ; preds = %56, %._crit_edge
  ret void
}